; Function Attrs: nounwind uwtable
define hidden ptr @get_cfunc_from_callable(ptr noundef %0, ptr noundef %1, ptr noundef readnone %2) local_unnamed_addr #0 {
  %4 = getelementptr i8, ptr %0, i64 8
  %.val21 = load ptr, ptr %4, align 8, !tbaa !3
  %.not.i = icmp eq ptr %.val21, @PyCFunction_Type
  br i1 %.not.i, label %PyObject_TypeCheck.exit.thread, label %PyObject_TypeCheck.exit

PyObject_TypeCheck.exit:                          ; preds = %3
  %5 = tail call i32 @PyType_IsSubtype(ptr noundef %.val21, ptr noundef nonnull @PyCFunction_Type) #5
  %.not31 = icmp eq i32 %5, 0
  br i1 %.not31, label %10, label %PyObject_TypeCheck.exit.thread

PyObject_TypeCheck.exit.thread:                   ; preds = %3, %PyObject_TypeCheck.exit
  %6 = load i32, ptr %0, align 8, !tbaa !9
  %7 = icmp slt i32 %6, 0
  br i1 %7, label %Py_INCREF.exit, label %8

8:                                                ; preds = %PyObject_TypeCheck.exit.thread
  %9 = add nuw i32 %6, 1
  store i32 %9, ptr %0, align 8, !tbaa !9
  br label %Py_INCREF.exit

10:                                               ; preds = %PyObject_TypeCheck.exit
  %.val = load ptr, ptr %4, align 8, !tbaa !3
  %11 = icmp ne ptr %.val, @PyMethodDescr_Type
  %12 = icmp eq ptr %1, %2
  %or.cond = or i1 %12, %11
  br i1 %or.cond, label %Py_INCREF.exit, label %13

13:                                               ; preds = %10
  %14 = load ptr, ptr getelementptr inbounds nuw (i8, ptr @PyMethodDescr_Type, i64 272), align 8, !tbaa !10
  %15 = getelementptr i8, ptr %1, i64 8
  %.val20 = load ptr, ptr %15, align 8, !tbaa !3
  %16 = tail call ptr %14(ptr noundef nonnull %0, ptr noundef %1, ptr noundef %.val20) #5
  %17 = icmp eq ptr %16, null
  br i1 %17, label %Py_INCREF.exit, label %18

18:                                               ; preds = %13
  %19 = getelementptr i8, ptr %16, i64 8
  %.val22 = load ptr, ptr %19, align 8, !tbaa !3
  %.not.i23 = icmp eq ptr %.val22, @PyCFunction_Type
  br i1 %.not.i23, label %Py_INCREF.exit, label %PyObject_TypeCheck.exit24

PyObject_TypeCheck.exit24:                        ; preds = %18
  %20 = tail call i32 @PyType_IsSubtype(ptr noundef %.val22, ptr noundef nonnull @PyCFunction_Type) #5
  %.fr = freeze i32 %20
  %.not = icmp eq i32 %.fr, 0
  %spec.select = select i1 %.not, ptr null, ptr %16
  br label %Py_INCREF.exit

Py_INCREF.exit:                                   ; preds = %PyObject_TypeCheck.exit24, %18, %13, %10, %8, %PyObject_TypeCheck.exit.thread
  %.014 = phi ptr [ %0, %PyObject_TypeCheck.exit.thread ], [ %0, %8 ], [ null, %10 ], [ null, %13 ], [ %16, %18 ], [ %spec.select, %PyObject_TypeCheck.exit24 ]
  ret ptr %.014
}